; Function Attrs: nofree norecurse nosync nounwind memory(readwrite, inaccessiblemem: none) uwtable
define range(i32 -98, 1) i32 @sp_mod(ptr noundef captures(address) %0, ptr noundef captures(address_is_null) %1, ptr noundef captures(address) %2) local_unnamed_addr #11 {
  %4 = icmp eq ptr %0, null
  %5 = icmp eq ptr %1, null
  %or.cond = or i1 %4, %5
  %6 = icmp eq ptr %2, null
  %or.cond3 = or i1 %or.cond, %6
  br i1 %or.cond3, label %.thread, label %7

7:                                                ; preds = %3
  %8 = load i16, ptr %0, align 8, !tbaa !12
  %9 = icmp ult i16 %8, 129
  br i1 %9, label %10, label %.thread

10:                                               ; preds = %7
  %11 = tail call i32 @sp_div(ptr noundef nonnull %0, ptr noundef nonnull %1, ptr noundef null, ptr noundef nonnull %2)
  br label %.thread

.thread:                                          ; preds = %3, %10, %7
  %.1 = phi i32 [ %11, %10 ], [ -98, %7 ], [ -98, %3 ]
  ret i32 %.1
}